target datalayout = "e-m:e-p270:32:32-p271:32:32-p272:64:64-i64:64-i128:128-f80:128-n8:16:32:64-S128"
target triple = "x86_64-pc-linux-gnu"

%struct.env_md_ctx_st = type { ptr, ptr, ptr, ptr }
%struct.rsa_st = type { ptr, ptr, ptr, ptr, ptr, ptr, ptr, ptr, ptr, ptr, %struct.crypto_ex_data_st, i32, i32, %union.crypto_mutex_st, ptr, ptr, ptr, i32, ptr, ptr }
%struct.crypto_ex_data_st = type { ptr }
%union.crypto_mutex_st = type { double, [48 x i8] }

@.str = private unnamed_addr constant [124 x i8] c"generated/home/dtcxzyw/WorkSpace/Projects/compilers/llvm-opt-benchmark/bench/libquic/libquic/boringssl/crypto/rsa/padding.c\00", align 1
@zeroes = internal constant [8 x i8] zeroinitializer, align 1

; Function Attrs: nounwind uwtable
define hidden i32 @RSA_verify_PKCS1_PSS_mgf1(ptr noundef %0, ptr noundef %1, ptr noundef %2, ptr noundef %3, ptr noundef %4, i32 noundef %5) #0 {
  %7 = alloca ptr, align 8
  %8 = alloca ptr, align 8
  %9 = alloca ptr, align 8
  %10 = alloca ptr, align 8
  %11 = alloca ptr, align 8
  %12 = alloca i32, align 4
  %13 = alloca i32, align 4
  %14 = alloca i32, align 4
  %15 = alloca i32, align 4
  %16 = alloca i32, align 4
  %17 = alloca i32, align 4
  %18 = alloca i64, align 8
  %19 = alloca ptr, align 8
  %20 = alloca ptr, align 8
  %21 = alloca %struct.env_md_ctx_st, align 8
  %22 = alloca [64 x i8], align 16
  store ptr %0, ptr %7, align 8, !tbaa !27
  store ptr %1, ptr %8, align 8, !tbaa !6
  store ptr %2, ptr %9, align 8, !tbaa !19
  store ptr %3, ptr %10, align 8, !tbaa !19
  store ptr %4, ptr %11, align 8, !tbaa !6
  store i32 %5, ptr %12, align 4, !tbaa !11
  call void @llvm.lifetime.start.p0(i64 4, ptr %13) #9
  call void @llvm.lifetime.start.p0(i64 4, ptr %14) #9
  store i32 0, ptr %14, align 4, !tbaa !11
  call void @llvm.lifetime.start.p0(i64 4, ptr %15) #9
  call void @llvm.lifetime.start.p0(i64 4, ptr %16) #9
  call void @llvm.lifetime.start.p0(i64 4, ptr %17) #9
  call void @llvm.lifetime.start.p0(i64 8, ptr %18) #9
  call void @llvm.lifetime.start.p0(i64 8, ptr %19) #9
  call void @llvm.lifetime.start.p0(i64 8, ptr %20) #9
  store ptr null, ptr %20, align 8, !tbaa !6
  call void @llvm.lifetime.start.p0(i64 32, ptr %21) #9
  call void @llvm.lifetime.start.p0(i64 64, ptr %22) #9
  call void @EVP_MD_CTX_init(ptr noundef %21)
  %23 = load ptr, ptr %10, align 8, !tbaa !19
  %24 = icmp eq ptr %23, null
  br i1 %24, label %25, label %27

25:                                               ; preds = %6
  %26 = load ptr, ptr %9, align 8, !tbaa !19
  store ptr %26, ptr %10, align 8, !tbaa !19
  br label %27

27:                                               ; preds = %25, %6
  %28 = load ptr, ptr %9, align 8, !tbaa !19
  %29 = call i64 @EVP_MD_size(ptr noundef %28)
  store i64 %29, ptr %18, align 8, !tbaa !29
  %30 = load i32, ptr %12, align 4, !tbaa !11
  %31 = icmp eq i32 %30, -1
  br i1 %31, label %32, label %35

32:                                               ; preds = %27
  %33 = load i64, ptr %18, align 8, !tbaa !29
  %34 = trunc i64 %33 to i32
  store i32 %34, ptr %12, align 4, !tbaa !11
  br label %45

35:                                               ; preds = %27
  %36 = load i32, ptr %12, align 4, !tbaa !11
  %37 = icmp eq i32 %36, -2
  br i1 %37, label %38, label %39

38:                                               ; preds = %35
  store i32 -2, ptr %12, align 4, !tbaa !11
  br label %44

39:                                               ; preds = %35
  %40 = load i32, ptr %12, align 4, !tbaa !11
  %41 = icmp slt i32 %40, -2
  br i1 %41, label %42, label %43

42:                                               ; preds = %39
  call void @ERR_put_error(i32 noundef 4, i32 noundef 0, i32 noundef 138, ptr noundef @.str, i32 noundef 520)
  br label %238

43:                                               ; preds = %39
  br label %44

44:                                               ; preds = %43, %38
  br label %45

45:                                               ; preds = %44, %32
  %46 = load ptr, ptr %7, align 8, !tbaa !27
  %47 = getelementptr inbounds nuw %struct.rsa_st, ptr %46, i32 0, i32 1
  %48 = load ptr, ptr %47, align 8, !tbaa !31
  %49 = call i32 @BN_num_bits(ptr noundef %48)
  %50 = sub i32 %49, 1
  %51 = and i32 %50, 7
  store i32 %51, ptr %16, align 4, !tbaa !11
  %52 = load ptr, ptr %7, align 8, !tbaa !27
  %53 = call i32 @RSA_size(ptr noundef %52)
  store i32 %53, ptr %17, align 4, !tbaa !11
  %54 = load ptr, ptr %11, align 8, !tbaa !6
  %55 = getelementptr inbounds i8, ptr %54, i64 0
  %56 = load i8, ptr %55, align 1, !tbaa !13
  %57 = zext i8 %56 to i32
  %58 = load i32, ptr %16, align 4, !tbaa !11
  %59 = shl i32 255, %58
  %60 = and i32 %57, %59
  %61 = icmp ne i32 %60, 0
  br i1 %61, label %62, label %63

62:                                               ; preds = %45
  call void @ERR_put_error(i32 noundef 4, i32 noundef 0, i32 noundef 122, ptr noundef @.str, i32 noundef 527)
  br label %238

63:                                               ; preds = %45
  %64 = load i32, ptr %16, align 4, !tbaa !11
  %65 = icmp eq i32 %64, 0
  br i1 %65, label %66, label %71

66:                                               ; preds = %63
  %67 = load ptr, ptr %11, align 8, !tbaa !6
  %68 = getelementptr inbounds nuw i8, ptr %67, i32 1
  store ptr %68, ptr %11, align 8, !tbaa !6
  %69 = load i32, ptr %17, align 4, !tbaa !11
  %70 = add nsw i32 %69, -1
  store i32 %70, ptr %17, align 4, !tbaa !11
  br label %71

71:                                               ; preds = %66, %63
  %72 = load i32, ptr %17, align 4, !tbaa !11
  %73 = load i64, ptr %18, align 8, !tbaa !29
  %74 = trunc i64 %73 to i32
  %75 = load i32, ptr %12, align 4, !tbaa !11
  %76 = add nsw i32 %74, %75
  %77 = add nsw i32 %76, 2
  %78 = icmp slt i32 %72, %77
  br i1 %78, label %79, label %80

79:                                               ; preds = %71
  call void @ERR_put_error(i32 noundef 4, i32 noundef 0, i32 noundef 113, ptr noundef @.str, i32 noundef 536)
  br label %238

80:                                               ; preds = %71
  %81 = load ptr, ptr %11, align 8, !tbaa !6
  %82 = load i32, ptr %17, align 4, !tbaa !11
  %83 = sub nsw i32 %82, 1
  %84 = sext i32 %83 to i64
  %85 = getelementptr inbounds i8, ptr %81, i64 %84
  %86 = load i8, ptr %85, align 1, !tbaa !13
  %87 = zext i8 %86 to i32
  %88 = icmp ne i32 %87, 188
  br i1 %88, label %89, label %90

89:                                               ; preds = %80
  call void @ERR_put_error(i32 noundef 4, i32 noundef 0, i32 noundef 127, ptr noundef @.str, i32 noundef 540)
  br label %238

90:                                               ; preds = %80
  %91 = load i32, ptr %17, align 4, !tbaa !11
  %92 = sext i32 %91 to i64
  %93 = load i64, ptr %18, align 8, !tbaa !29
  %94 = sub i64 %92, %93
  %95 = sub i64 %94, 1
  %96 = trunc i64 %95 to i32
  store i32 %96, ptr %15, align 4, !tbaa !11
  %97 = load ptr, ptr %11, align 8, !tbaa !6
  %98 = load i32, ptr %15, align 4, !tbaa !11
  %99 = sext i32 %98 to i64
  %100 = getelementptr inbounds i8, ptr %97, i64 %99
  store ptr %100, ptr %19, align 8, !tbaa !6
  %101 = load i32, ptr %15, align 4, !tbaa !11
  %102 = sext i32 %101 to i64
  %103 = call noalias ptr @malloc(i64 noundef %102) #10
  store ptr %103, ptr %20, align 8, !tbaa !6
  %104 = load ptr, ptr %20, align 8, !tbaa !6
  %105 = icmp ne ptr %104, null
  br i1 %105, label %107, label %106

106:                                              ; preds = %90
  call void @ERR_put_error(i32 noundef 4, i32 noundef 0, i32 noundef 65, ptr noundef @.str, i32 noundef 547)
  br label %238

107:                                              ; preds = %90
  %108 = load ptr, ptr %20, align 8, !tbaa !6
  %109 = load i32, ptr %15, align 4, !tbaa !11
  %110 = load ptr, ptr %19, align 8, !tbaa !6
  %111 = load i64, ptr %18, align 8, !tbaa !29
  %112 = trunc i64 %111 to i32
  %113 = load ptr, ptr %10, align 8, !tbaa !19
  %114 = call i32 @PKCS1_MGF1(ptr noundef %108, i32 noundef %109, ptr noundef %110, i32 noundef %112, ptr noundef %113)
  %115 = icmp slt i32 %114, 0
  br i1 %115, label %116, label %117

116:                                              ; preds = %107
  br label %238

117:                                              ; preds = %107
  store i32 0, ptr %13, align 4, !tbaa !11
  br label %118

118:                                              ; preds = %137, %117
  %119 = load i32, ptr %13, align 4, !tbaa !11
  %120 = load i32, ptr %15, align 4, !tbaa !11
  %121 = icmp slt i32 %119, %120
  br i1 %121, label %122, label %140

122:                                              ; preds = %118
  %123 = load ptr, ptr %11, align 8, !tbaa !6
  %124 = load i32, ptr %13, align 4, !tbaa !11
  %125 = sext i32 %124 to i64
  %126 = getelementptr inbounds i8, ptr %123, i64 %125
  %127 = load i8, ptr %126, align 1, !tbaa !13
  %128 = zext i8 %127 to i32
  %129 = load ptr, ptr %20, align 8, !tbaa !6
  %130 = load i32, ptr %13, align 4, !tbaa !11
  %131 = sext i32 %130 to i64
  %132 = getelementptr inbounds i8, ptr %129, i64 %131
  %133 = load i8, ptr %132, align 1, !tbaa !13
  %134 = zext i8 %133 to i32
  %135 = xor i32 %134, %128
  %136 = trunc i32 %135 to i8
  store i8 %136, ptr %132, align 1, !tbaa !13
  br label %137

137:                                              ; preds = %122
  %138 = load i32, ptr %13, align 4, !tbaa !11
  %139 = add nsw i32 %138, 1
  store i32 %139, ptr %13, align 4, !tbaa !11
  br label %118, !llvm.loop !40

140:                                              ; preds = %118
  %141 = load i32, ptr %16, align 4, !tbaa !11
  %142 = icmp ne i32 %141, 0
  br i1 %142, label %143, label %153

143:                                              ; preds = %140
  %144 = load i32, ptr %16, align 4, !tbaa !11
  %145 = sub nsw i32 8, %144
  %146 = ashr i32 255, %145
  %147 = load ptr, ptr %20, align 8, !tbaa !6
  %148 = getelementptr inbounds i8, ptr %147, i64 0
  %149 = load i8, ptr %148, align 1, !tbaa !13
  %150 = zext i8 %149 to i32
  %151 = and i32 %150, %146
  %152 = trunc i32 %151 to i8
  store i8 %152, ptr %148, align 1, !tbaa !13
  br label %153

153:                                              ; preds = %143, %140
  store i32 0, ptr %13, align 4, !tbaa !11
  br label %154

154:                                              ; preds = %170, %153
  %155 = load ptr, ptr %20, align 8, !tbaa !6
  %156 = load i32, ptr %13, align 4, !tbaa !11
  %157 = sext i32 %156 to i64
  %158 = getelementptr inbounds i8, ptr %155, i64 %157
  %159 = load i8, ptr %158, align 1, !tbaa !13
  %160 = zext i8 %159 to i32
  %161 = icmp eq i32 %160, 0
  br i1 %161, label %162, label %167

162:                                              ; preds = %154
  %163 = load i32, ptr %13, align 4, !tbaa !11
  %164 = load i32, ptr %15, align 4, !tbaa !11
  %165 = sub nsw i32 %164, 1
  %166 = icmp slt i32 %163, %165
  br label %167

167:                                              ; preds = %162, %154
  %168 = phi i1 [ false, %154 ], [ %166, %162 ]
  br i1 %168, label %169, label %173

169:                                              ; preds = %167
  br label %170

170:                                              ; preds = %169
  %171 = load i32, ptr %13, align 4, !tbaa !11
  %172 = add nsw i32 %171, 1
  store i32 %172, ptr %13, align 4, !tbaa !11
  br label %154, !llvm.loop !41

173:                                              ; preds = %167
  %174 = load ptr, ptr %20, align 8, !tbaa !6
  %175 = load i32, ptr %13, align 4, !tbaa !11
  %176 = add nsw i32 %175, 1
  store i32 %176, ptr %13, align 4, !tbaa !11
  %177 = sext i32 %175 to i64
  %178 = getelementptr inbounds i8, ptr %174, i64 %177
  %179 = load i8, ptr %178, align 1, !tbaa !13
  %180 = zext i8 %179 to i32
  %181 = icmp ne i32 %180, 1
  br i1 %181, label %182, label %183

182:                                              ; preds = %173
  call void @ERR_put_error(i32 noundef 4, i32 noundef 0, i32 noundef 139, ptr noundef @.str, i32 noundef 563)
  br label %238

183:                                              ; preds = %173
  %184 = load i32, ptr %12, align 4, !tbaa !11
  %185 = icmp sge i32 %184, 0
  br i1 %185, label %186, label %193

186:                                              ; preds = %183
  %187 = load i32, ptr %15, align 4, !tbaa !11
  %188 = load i32, ptr %13, align 4, !tbaa !11
  %189 = sub nsw i32 %187, %188
  %190 = load i32, ptr %12, align 4, !tbaa !11
  %191 = icmp ne i32 %189, %190
  br i1 %191, label %192, label %193

192:                                              ; preds = %186
  call void @ERR_put_error(i32 noundef 4, i32 noundef 0, i32 noundef 138, ptr noundef @.str, i32 noundef 567)
  br label %238

193:                                              ; preds = %186, %183
  %194 = load ptr, ptr %9, align 8, !tbaa !19
  %195 = call i32 @EVP_DigestInit_ex(ptr noundef %21, ptr noundef %194, ptr noundef null)
  %196 = icmp ne i32 %195, 0
  br i1 %196, label %197, label %205

197:                                              ; preds = %193
  %198 = call i32 @EVP_DigestUpdate(ptr noundef %21, ptr noundef @zeroes, i64 noundef 8)
  %199 = icmp ne i32 %198, 0
  br i1 %199, label %200, label %205

200:                                              ; preds = %197
  %201 = load ptr, ptr %8, align 8, !tbaa !6
  %202 = load i64, ptr %18, align 8, !tbaa !29
  %203 = call i32 @EVP_DigestUpdate(ptr noundef %21, ptr noundef %201, i64 noundef %202)
  %204 = icmp ne i32 %203, 0
  br i1 %204, label %206, label %205

205:                                              ; preds = %200, %197, %193
  br label %238

206:                                              ; preds = %200
  %207 = load i32, ptr %15, align 4, !tbaa !11
  %208 = load i32, ptr %13, align 4, !tbaa !11
  %209 = sub nsw i32 %207, %208
  %210 = icmp ne i32 %209, 0
  br i1 %210, label %211, label %224

211:                                              ; preds = %206
  %212 = load ptr, ptr %20, align 8, !tbaa !6
  %213 = load i32, ptr %13, align 4, !tbaa !11
  %214 = sext i32 %213 to i64
  %215 = getelementptr inbounds i8, ptr %212, i64 %214
  %216 = load i32, ptr %15, align 4, !tbaa !11
  %217 = load i32, ptr %13, align 4, !tbaa !11
  %218 = sub nsw i32 %216, %217
  %219 = sext i32 %218 to i64
  %220 = call i32 @EVP_DigestUpdate(ptr noundef %21, ptr noundef %215, i64 noundef %219)
  %221 = icmp ne i32 %220, 0
  br i1 %221, label %223, label %222

222:                                              ; preds = %211
  br label %238

223:                                              ; preds = %211
  br label %224

224:                                              ; preds = %223, %206
  %225 = getelementptr inbounds [64 x i8], ptr %22, i64 0, i64 0
  %226 = call i32 @EVP_DigestFinal_ex(ptr noundef %21, ptr noundef %225, ptr noundef null)
  %227 = icmp ne i32 %226, 0
  br i1 %227, label %229, label %228

228:                                              ; preds = %224
  br label %238

229:                                              ; preds = %224
  %230 = getelementptr inbounds [64 x i8], ptr %22, i64 0, i64 0
  %231 = load ptr, ptr %19, align 8, !tbaa !6
  %232 = load i64, ptr %18, align 8, !tbaa !29
  %233 = call i32 @memcmp(ptr noundef %230, ptr noundef %231, i64 noundef %232) #11
  %234 = icmp ne i32 %233, 0
  br i1 %234, label %235, label %236

235:                                              ; preds = %229
  call void @ERR_put_error(i32 noundef 4, i32 noundef 0, i32 noundef 105, ptr noundef @.str, i32 noundef 584)
  store i32 0, ptr %14, align 4, !tbaa !11
  br label %237

236:                                              ; preds = %229
  store i32 1, ptr %14, align 4, !tbaa !11
  br label %237

237:                                              ; preds = %236, %235
  br label %238

238:                                              ; preds = %237, %228, %222, %205, %192, %182, %116, %106, %89, %79, %62, %42
  %239 = load ptr, ptr %20, align 8, !tbaa !6
  call void @free(ptr noundef %239) #9
  %240 = call i32 @EVP_MD_CTX_cleanup(ptr noundef %21)
  %241 = load i32, ptr %14, align 4, !tbaa !11
  call void @llvm.lifetime.end.p0(i64 64, ptr %22) #9
  call void @llvm.lifetime.end.p0(i64 32, ptr %21) #9
  call void @llvm.lifetime.end.p0(i64 8, ptr %20) #9
  call void @llvm.lifetime.end.p0(i64 8, ptr %19) #9
  call void @llvm.lifetime.end.p0(i64 8, ptr %18) #9
  call void @llvm.lifetime.end.p0(i64 4, ptr %17) #9
  call void @llvm.lifetime.end.p0(i64 4, ptr %16) #9
  call void @llvm.lifetime.end.p0(i64 4, ptr %15) #9
  call void @llvm.lifetime.end.p0(i64 4, ptr %14) #9
  call void @llvm.lifetime.end.p0(i64 4, ptr %13) #9
  ret i32 %241
}