; Function Attrs: nounwind uwtable
define hidden range(i32 0, 2) i32 @RSA_verify_PKCS1_PSS_mgf1(ptr noundef %0, ptr noundef %1, ptr noundef %2, ptr noundef %3, ptr noundef %4, i32 noundef %5) local_unnamed_addr #0 {
  %7 = alloca %struct.env_md_ctx_st, align 8
  %8 = alloca [64 x i8], align 16
  call void @llvm.lifetime.start.p0(i64 32, ptr nonnull %7) #8
  call void @llvm.lifetime.start.p0(i64 64, ptr nonnull %8) #8
  call void @EVP_MD_CTX_init(ptr noundef nonnull %7) #8
  %9 = icmp eq ptr %3, null
  %spec.select = select i1 %9, ptr %2, ptr %3
  %10 = call i64 @EVP_MD_size(ptr noundef %2) #8
  switch i32 %5, label %13 [
    i32 -1, label %11
    i32 -2, label %16
  ]

11:                                               ; preds = %6
  %12 = trunc i64 %10 to i32
  br label %16

13:                                               ; preds = %6
  %14 = icmp slt i32 %5, -2
  br i1 %14, label %15, label %16

15:                                               ; preds = %13
  call void @ERR_put_error(i32 noundef 4, i32 noundef 0, i32 noundef 138, ptr noundef nonnull @.str, i32 noundef 520) #8
  br label %98

16:                                               ; preds = %6, %13, %11
  %.066 = phi i32 [ %12, %11 ], [ %5, %13 ], [ %5, %6 ]
  %17 = getelementptr inbounds nuw i8, ptr %0, i64 8
  %18 = load ptr, ptr %17, align 8, !tbaa !20
  %19 = call i32 @BN_num_bits(ptr noundef %18) #8
  %20 = add i32 %19, 7
  %21 = and i32 %20, 7
  %22 = call i32 @RSA_size(ptr noundef %0) #8
  %23 = load i8, ptr %4, align 1, !tbaa !6
  %24 = zext i8 %23 to i32
  %25 = shl nuw nsw i32 255, %21
  %26 = and i32 %25, %24
  %.not = icmp eq i32 %26, 0
  br i1 %.not, label %28, label %27

27:                                               ; preds = %16
  call void @ERR_put_error(i32 noundef 4, i32 noundef 0, i32 noundef 122, ptr noundef nonnull @.str, i32 noundef 527) #8
  br label %98

28:                                               ; preds = %16
  %29 = and i32 %19, 7
  %30 = icmp eq i32 %29, 1
  %31 = sext i1 %30 to i32
  %.065 = add nsw i32 %22, %31
  %.064.idx = zext i1 %30 to i64
  %.064 = getelementptr inbounds nuw i8, ptr %4, i64 %.064.idx
  %32 = trunc i64 %10 to i32
  %33 = add i32 %32, 2
  %34 = add i32 %33, %.066
  %35 = icmp slt i32 %.065, %34
  br i1 %35, label %36, label %37

36:                                               ; preds = %28
  call void @ERR_put_error(i32 noundef 4, i32 noundef 0, i32 noundef 113, ptr noundef nonnull @.str, i32 noundef 536) #8
  br label %98

37:                                               ; preds = %28
  %38 = sext i32 %.065 to i64
  %39 = getelementptr i8, ptr %.064, i64 %38
  %40 = getelementptr i8, ptr %39, i64 -1
  %41 = load i8, ptr %40, align 1, !tbaa !6
  %.not76 = icmp eq i8 %41, -68
  br i1 %.not76, label %43, label %42

42:                                               ; preds = %37
  call void @ERR_put_error(i32 noundef 4, i32 noundef 0, i32 noundef 127, ptr noundef nonnull @.str, i32 noundef 540) #8
  br label %98

43:                                               ; preds = %37
  %44 = xor i32 %32, -1
  %45 = add i32 %.065, %44
  %46 = sext i32 %45 to i64
  %47 = getelementptr inbounds i8, ptr %.064, i64 %46
  %48 = call noalias ptr @malloc(i64 noundef %46) #9
  %.not77 = icmp eq ptr %48, null
  br i1 %.not77, label %49, label %50

49:                                               ; preds = %43
  call void @ERR_put_error(i32 noundef 4, i32 noundef 0, i32 noundef 65, ptr noundef nonnull @.str, i32 noundef 547) #8
  br label %98

50:                                               ; preds = %43
  %51 = call fastcc i32 @PKCS1_MGF1(ptr noundef nonnull %48, i32 noundef %45, ptr noundef nonnull %47, i32 noundef %32, ptr noundef %spec.select)
  %52 = icmp slt i32 %51, 0
  br i1 %52, label %98, label %.preheader

.preheader:                                       ; preds = %50
  %53 = icmp sgt i32 %45, 0
  br i1 %53, label %.lr.ph.preheader, label %._crit_edge

.lr.ph.preheader:                                 ; preds = %.preheader
  %wide.trip.count = zext nneg i32 %45 to i64
  br label %.lr.ph

.lr.ph:                                           ; preds = %.lr.ph.preheader, %.lr.ph
  %indvars.iv = phi i64 [ 0, %.lr.ph.preheader ], [ %indvars.iv.next, %.lr.ph ]
  %54 = getelementptr inbounds nuw i8, ptr %.064, i64 %indvars.iv
  %55 = load i8, ptr %54, align 1, !tbaa !6
  %56 = getelementptr inbounds nuw i8, ptr %48, i64 %indvars.iv
  %57 = load i8, ptr %56, align 1, !tbaa !6
  %58 = xor i8 %57, %55
  store i8 %58, ptr %56, align 1, !tbaa !6
  %indvars.iv.next = add nuw nsw i64 %indvars.iv, 1
  %exitcond.not = icmp eq i64 %indvars.iv.next, %wide.trip.count
  br i1 %exitcond.not, label %._crit_edge, label %.lr.ph, !llvm.loop !32

._crit_edge:                                      ; preds = %.lr.ph, %.preheader
  br i1 %30, label %65, label %59

59:                                               ; preds = %._crit_edge
  %60 = sub nuw nsw i32 8, %21
  %61 = lshr i32 255, %60
  %62 = load i8, ptr %48, align 1, !tbaa !6
  %63 = trunc nuw nsw i32 %61 to i8
  %64 = and i8 %62, %63
  store i8 %64, ptr %48, align 1, !tbaa !6
  br label %65

65:                                               ; preds = %59, %._crit_edge
  %66 = add nsw i32 %45, -1
  %67 = sext i32 %66 to i64
  br label %68

68:                                               ; preds = %68, %65
  %indvars.iv90 = phi i64 [ %indvars.iv.next91, %68 ], [ 0, %65 ]
  %69 = getelementptr inbounds nuw i8, ptr %48, i64 %indvars.iv90
  %70 = load i8, ptr %69, align 1, !tbaa !6
  %71 = icmp eq i8 %70, 0
  %72 = icmp slt i64 %indvars.iv90, %67
  %73 = select i1 %71, i1 %72, i1 false
  %indvars.iv.next91 = add nuw nsw i64 %indvars.iv90, 1
  br i1 %73, label %68, label %74, !llvm.loop !33

74:                                               ; preds = %68
  %75 = trunc nuw nsw i64 %indvars.iv90 to i32
  %76 = add nuw nsw i32 %75, 1
  %.not79 = icmp eq i8 %70, 1
  br i1 %.not79, label %78, label %77

77:                                               ; preds = %74
  call void @ERR_put_error(i32 noundef 4, i32 noundef 0, i32 noundef 139, ptr noundef nonnull @.str, i32 noundef 563) #8
  br label %98

78:                                               ; preds = %74
  %79 = icmp slt i32 %.066, 0
  %80 = sub nsw i32 %45, %76
  %.not80 = icmp eq i32 %80, %.066
  %or.cond = select i1 %79, i1 true, i1 %.not80
  br i1 %or.cond, label %82, label %81

81:                                               ; preds = %78
  call void @ERR_put_error(i32 noundef 4, i32 noundef 0, i32 noundef 138, ptr noundef nonnull @.str, i32 noundef 567) #8
  br label %98

82:                                               ; preds = %78
  %83 = call i32 @EVP_DigestInit_ex(ptr noundef nonnull %7, ptr noundef %2, ptr noundef null) #8
  %.not81 = icmp eq i32 %83, 0
  br i1 %.not81, label %98, label %84

84:                                               ; preds = %82
  %85 = call i32 @EVP_DigestUpdate(ptr noundef nonnull %7, ptr noundef nonnull @zeroes, i64 noundef 8) #8
  %.not82 = icmp eq i32 %85, 0
  br i1 %.not82, label %98, label %86

86:                                               ; preds = %84
  %87 = call i32 @EVP_DigestUpdate(ptr noundef nonnull %7, ptr noundef %1, i64 noundef %10) #8
  %.not83 = icmp eq i32 %87, 0
  br i1 %.not83, label %98, label %88

88:                                               ; preds = %86
  %.not84 = icmp eq i32 %45, %76
  br i1 %.not84, label %94, label %89

89:                                               ; preds = %88
  %90 = zext nneg i32 %76 to i64
  %91 = getelementptr inbounds nuw i8, ptr %48, i64 %90
  %92 = sext i32 %80 to i64
  %93 = call i32 @EVP_DigestUpdate(ptr noundef nonnull %7, ptr noundef nonnull %91, i64 noundef %92) #8
  %.not85 = icmp eq i32 %93, 0
  br i1 %.not85, label %98, label %94

94:                                               ; preds = %89, %88
  %95 = call i32 @EVP_DigestFinal_ex(ptr noundef nonnull %7, ptr noundef nonnull %8, ptr noundef null) #8
  %.not86 = icmp eq i32 %95, 0
  br i1 %.not86, label %98, label %96

96:                                               ; preds = %94
  %bcmp = call i32 @bcmp(ptr nonnull %8, ptr nonnull %47, i64 %10)
  %.not87 = icmp eq i32 %bcmp, 0
  br i1 %.not87, label %98, label %97

97:                                               ; preds = %96
  call void @ERR_put_error(i32 noundef 4, i32 noundef 0, i32 noundef 105, ptr noundef nonnull @.str, i32 noundef 584) #8
  br label %98

98:                                               ; preds = %96, %97, %94, %89, %82, %84, %86, %50, %81, %77, %49, %42, %36, %27, %15
  %.068 = phi i32 [ 0, %27 ], [ 0, %36 ], [ 0, %42 ], [ 0, %50 ], [ 0, %77 ], [ 0, %81 ], [ 0, %97 ], [ 0, %94 ], [ 0, %89 ], [ 0, %86 ], [ 0, %84 ], [ 0, %82 ], [ 0, %49 ], [ 0, %15 ], [ 1, %96 ]
  %.0 = phi ptr [ null, %27 ], [ null, %36 ], [ null, %42 ], [ %48, %50 ], [ %48, %77 ], [ %48, %81 ], [ %48, %97 ], [ %48, %94 ], [ %48, %89 ], [ %48, %86 ], [ %48, %84 ], [ %48, %82 ], [ null, %49 ], [ null, %15 ], [ %48, %96 ]
  call void @free(ptr noundef %.0) #8
  %99 = call i32 @EVP_MD_CTX_cleanup(ptr noundef nonnull %7) #8
  call void @llvm.lifetime.end.p0(i64 64, ptr nonnull %8) #8
  call void @llvm.lifetime.end.p0(i64 32, ptr nonnull %7) #8
  ret i32 %.068
}